target datalayout = "e-m:e-p270:32:32-p271:32:32-p272:64:64-i64:64-i128:128-f80:128-n8:16:32:64-S128"
target triple = "x86_64-pc-linux-gnu"

%struct.CatalogId = type { i32, i32 }
%struct.Archive = type { ptr, ptr, i32, ptr, i32, i8, i32, i32, i32, ptr, i32, i8, ptr, ptr, i8, i32, ptr }
%struct._dumpableObject = type { i32, %struct.CatalogId, i32, ptr, ptr, i32, i32, i32, i8, i8, ptr, i32, i32 }
%struct.PQExpBufferData = type { ptr, i64, i64 }
%struct._dumpableAcl = type { ptr, ptr, i8, ptr }
%struct._typeInfo = type { %struct._dumpableObject, %struct._dumpableAcl, ptr, ptr, i32, i32, i32, i8, i8, i8, i8, i8, ptr, i32, ptr }

@.str.106 = private unnamed_addr constant [4 x i8] c"oid\00", align 1
@.str.211 = private unnamed_addr constant [9 x i8] c"typarray\00", align 1
@.str.856 = private unnamed_addr constant [51 x i8] c"\0A-- For binary upgrade, must preserve pg_type oid\0A\00", align 1
@.str.857 = private unnamed_addr constant [79 x i8] c"SELECT pg_catalog.binary_upgrade_set_next_pg_type_oid('%u'::pg_catalog.oid);\0A\0A\00", align 1
@.str.858 = private unnamed_addr constant [57 x i8] c"\0A-- For binary upgrade, must preserve pg_type array oid\0A\00", align 1
@.str.859 = private unnamed_addr constant [85 x i8] c"SELECT pg_catalog.binary_upgrade_set_next_array_pg_type_oid('%u'::pg_catalog.oid);\0A\0A\00", align 1
@.str.860 = private unnamed_addr constant [146 x i8] c"SELECT t.oid, t.typarray FROM pg_catalog.pg_type t JOIN pg_catalog.pg_range r ON t.oid = r.rngmultitypid WHERE r.rngtypid = '%u'::pg_catalog.oid;\00", align 1
@.str.861 = private unnamed_addr constant [62 x i8] c"\0A-- For binary upgrade, must preserve multirange pg_type oid\0A\00", align 1
@.str.862 = private unnamed_addr constant [90 x i8] c"SELECT pg_catalog.binary_upgrade_set_next_multirange_pg_type_oid('%u'::pg_catalog.oid);\0A\0A\00", align 1
@.str.863 = private unnamed_addr constant [68 x i8] c"\0A-- For binary upgrade, must preserve multirange pg_type array oid\0A\00", align 1
@.str.864 = private unnamed_addr constant [96 x i8] c"SELECT pg_catalog.binary_upgrade_set_next_multirange_array_pg_type_oid('%u'::pg_catalog.oid);\0A\0A\00", align 1
@get_next_possible_free_pg_type_oid.next_possible_free_oid = internal global i32 16384, align 4
@.str.865 = private unnamed_addr constant [82 x i8] c"SELECT EXISTS(SELECT 1 FROM pg_catalog.pg_type WHERE oid = '%u'::pg_catalog.oid);\00", align 1

; Function Attrs: nounwind uwtable
define internal i32 @get_next_possible_free_pg_type_oid(ptr noundef %0, ptr noundef %1) #0 {
  %3 = alloca ptr, align 8
  %4 = alloca ptr, align 8
  %5 = alloca ptr, align 8
  %6 = alloca i8, align 1
  store ptr %0, ptr %3, align 8
  store ptr %1, ptr %4, align 8
  call void @llvm.lifetime.start.p0(i64 8, ptr %5) #10
  call void @llvm.lifetime.start.p0(i64 1, ptr %6) #10
  br label %7

7:                                                ; preds = %25, %2
  %8 = load i32, ptr @get_next_possible_free_pg_type_oid.next_possible_free_oid, align 4
  %9 = add i32 %8, 1
  store i32 %9, ptr @get_next_possible_free_pg_type_oid.next_possible_free_oid, align 4
  %10 = load ptr, ptr %4, align 8
  %11 = load i32, ptr @get_next_possible_free_pg_type_oid.next_possible_free_oid, align 4
  call void (ptr, ptr, ...) @printfPQExpBuffer(ptr noundef %10, ptr noundef @.str.865, i32 noundef %11)
  %12 = load ptr, ptr %3, align 8
  %13 = load ptr, ptr %4, align 8
  %14 = getelementptr inbounds nuw %struct.PQExpBufferData, ptr %13, i32 0, i32 0
  %15 = load ptr, ptr %14, align 8
  %16 = call ptr @ExecuteSqlQueryForSingleRow(ptr noundef %12, ptr noundef %15)
  store ptr %16, ptr %5, align 8
  %17 = load ptr, ptr %5, align 8
  %18 = call ptr @PQgetvalue(ptr noundef %17, i32 noundef 0, i32 noundef 0)
  %19 = getelementptr inbounds i8, ptr %18, i64 0
  %20 = load i8, ptr %19, align 1
  %21 = sext i8 %20 to i32
  %22 = icmp eq i32 %21, 116
  %23 = zext i1 %22 to i8
  store i8 %23, ptr %6, align 1
  %24 = load ptr, ptr %5, align 8
  call void @PQclear(ptr noundef %24)
  br label %25

25:                                               ; preds = %7
  %26 = load i8, ptr %6, align 1, !range !6, !noundef !7
  %27 = trunc i8 %26 to i1
  br i1 %27, label %7, label %28, !llvm.loop !138

28:                                               ; preds = %25
  %29 = load i32, ptr @get_next_possible_free_pg_type_oid.next_possible_free_oid, align 4
  call void @llvm.lifetime.end.p0(i64 1, ptr %6) #10
  call void @llvm.lifetime.end.p0(i64 8, ptr %5) #10
  ret i32 %29
}

; Function Attrs: nounwind uwtable
define internal void @binary_upgrade_set_type_oids_by_type_oid(ptr noundef %0, ptr noundef %1, i32 noundef %2, i1 noundef zeroext %3, i1 noundef zeroext %4) #0 {
  %6 = alloca ptr, align 8
  %7 = alloca ptr, align 8
  %8 = alloca i32, align 4
  %9 = alloca i8, align 1
  %10 = alloca i8, align 1
  %11 = alloca ptr, align 8
  %12 = alloca ptr, align 8
  %13 = alloca i32, align 4
  %14 = alloca i32, align 4
  %15 = alloca i32, align 4
  %16 = alloca ptr, align 8
  store ptr %0, ptr %6, align 8
  store ptr %1, ptr %7, align 8
  store i32 %2, ptr %8, align 4
  %17 = zext i1 %3 to i8
  store i8 %17, ptr %9, align 1
  %18 = zext i1 %4 to i8
  store i8 %18, ptr %10, align 1
  call void @llvm.lifetime.start.p0(i64 8, ptr %11) #10
  %19 = call ptr @createPQExpBuffer()
  store ptr %19, ptr %11, align 8
  call void @llvm.lifetime.start.p0(i64 8, ptr %12) #10
  call void @llvm.lifetime.start.p0(i64 4, ptr %13) #10
  call void @llvm.lifetime.start.p0(i64 4, ptr %14) #10
  call void @llvm.lifetime.start.p0(i64 4, ptr %15) #10
  call void @llvm.lifetime.start.p0(i64 8, ptr %16) #10
  %20 = load ptr, ptr %7, align 8
  call void @appendPQExpBufferStr(ptr noundef %20, ptr noundef @.str.856)
  %21 = load ptr, ptr %7, align 8
  %22 = load i32, ptr %8, align 4
  call void (ptr, ptr, ...) @appendPQExpBuffer(ptr noundef %21, ptr noundef @.str.857, i32 noundef %22)
  %23 = load i32, ptr %8, align 4
  %24 = call ptr @findTypeByOid(i32 noundef %23)
  store ptr %24, ptr %16, align 8
  %25 = load ptr, ptr %16, align 8
  %26 = icmp ne ptr %25, null
  br i1 %26, label %27, label %31

27:                                               ; preds = %5
  %28 = load ptr, ptr %16, align 8
  %29 = getelementptr inbounds nuw %struct._typeInfo, ptr %28, i32 0, i32 6
  %30 = load i32, ptr %29, align 8
  store i32 %30, ptr %13, align 4
  br label %32

31:                                               ; preds = %5
  store i32 0, ptr %13, align 4
  br label %32

32:                                               ; preds = %31, %27
  %33 = load i32, ptr %13, align 4
  %34 = icmp ne i32 %33, 0
  br i1 %34, label %42, label %35

35:                                               ; preds = %32
  %36 = load i8, ptr %9, align 1, !range !6, !noundef !7
  %37 = trunc i8 %36 to i1
  br i1 %37, label %38, label %42

38:                                               ; preds = %35
  %39 = load ptr, ptr %6, align 8
  %40 = load ptr, ptr %11, align 8
  %41 = call i32 @get_next_possible_free_pg_type_oid(ptr noundef %39, ptr noundef %40)
  store i32 %41, ptr %13, align 4
  br label %42

42:                                               ; preds = %38, %35, %32
  %43 = load i32, ptr %13, align 4
  %44 = icmp ne i32 %43, 0
  br i1 %44, label %45, label %49

45:                                               ; preds = %42
  %46 = load ptr, ptr %7, align 8
  call void @appendPQExpBufferStr(ptr noundef %46, ptr noundef @.str.858)
  %47 = load ptr, ptr %7, align 8
  %48 = load i32, ptr %13, align 4
  call void (ptr, ptr, ...) @appendPQExpBuffer(ptr noundef %47, ptr noundef @.str.859, i32 noundef %48)
  br label %49

49:                                               ; preds = %45, %42
  %50 = load i8, ptr %10, align 1, !range !6, !noundef !7
  %51 = trunc i8 %50 to i1
  br i1 %51, label %52, label %92

52:                                               ; preds = %49
  %53 = load ptr, ptr %6, align 8
  %54 = getelementptr inbounds nuw %struct.Archive, ptr %53, i32 0, i32 4
  %55 = load i32, ptr %54, align 8
  %56 = icmp sge i32 %55, 140000
  br i1 %56, label %57, label %78

57:                                               ; preds = %52
  %58 = load ptr, ptr %11, align 8
  %59 = load i32, ptr %8, align 4
  call void (ptr, ptr, ...) @printfPQExpBuffer(ptr noundef %58, ptr noundef @.str.860, i32 noundef %59)
  %60 = load ptr, ptr %6, align 8
  %61 = load ptr, ptr %11, align 8
  %62 = getelementptr inbounds nuw %struct.PQExpBufferData, ptr %61, i32 0, i32 0
  %63 = load ptr, ptr %62, align 8
  %64 = call ptr @ExecuteSqlQueryForSingleRow(ptr noundef %60, ptr noundef %63)
  store ptr %64, ptr %12, align 8
  %65 = load ptr, ptr %12, align 8
  %66 = load ptr, ptr %12, align 8
  %67 = call i32 @PQfnumber(ptr noundef %66, ptr noundef @.str.106)
  %68 = call ptr @PQgetvalue(ptr noundef %65, i32 noundef 0, i32 noundef %67)
  %69 = call i64 @strtoul(ptr noundef %68, ptr noundef null, i32 noundef 10) #10
  %70 = trunc i64 %69 to i32
  store i32 %70, ptr %14, align 4
  %71 = load ptr, ptr %12, align 8
  %72 = load ptr, ptr %12, align 8
  %73 = call i32 @PQfnumber(ptr noundef %72, ptr noundef @.str.211)
  %74 = call ptr @PQgetvalue(ptr noundef %71, i32 noundef 0, i32 noundef %73)
  %75 = call i64 @strtoul(ptr noundef %74, ptr noundef null, i32 noundef 10) #10
  %76 = trunc i64 %75 to i32
  store i32 %76, ptr %15, align 4
  %77 = load ptr, ptr %12, align 8
  call void @PQclear(ptr noundef %77)
  br label %85

78:                                               ; preds = %52
  %79 = load ptr, ptr %6, align 8
  %80 = load ptr, ptr %11, align 8
  %81 = call i32 @get_next_possible_free_pg_type_oid(ptr noundef %79, ptr noundef %80)
  store i32 %81, ptr %14, align 4
  %82 = load ptr, ptr %6, align 8
  %83 = load ptr, ptr %11, align 8
  %84 = call i32 @get_next_possible_free_pg_type_oid(ptr noundef %82, ptr noundef %83)
  store i32 %84, ptr %15, align 4
  br label %85

85:                                               ; preds = %78, %57
  %86 = load ptr, ptr %7, align 8
  call void @appendPQExpBufferStr(ptr noundef %86, ptr noundef @.str.861)
  %87 = load ptr, ptr %7, align 8
  %88 = load i32, ptr %14, align 4
  call void (ptr, ptr, ...) @appendPQExpBuffer(ptr noundef %87, ptr noundef @.str.862, i32 noundef %88)
  %89 = load ptr, ptr %7, align 8
  call void @appendPQExpBufferStr(ptr noundef %89, ptr noundef @.str.863)
  %90 = load ptr, ptr %7, align 8
  %91 = load i32, ptr %15, align 4
  call void (ptr, ptr, ...) @appendPQExpBuffer(ptr noundef %90, ptr noundef @.str.864, i32 noundef %91)
  br label %92

92:                                               ; preds = %85, %49
  %93 = load ptr, ptr %11, align 8
  call void @destroyPQExpBuffer(ptr noundef %93)
  call void @llvm.lifetime.end.p0(i64 8, ptr %16) #10
  call void @llvm.lifetime.end.p0(i64 4, ptr %15) #10
  call void @llvm.lifetime.end.p0(i64 4, ptr %14) #10
  call void @llvm.lifetime.end.p0(i64 4, ptr %13) #10
  call void @llvm.lifetime.end.p0(i64 8, ptr %12) #10
  call void @llvm.lifetime.end.p0(i64 8, ptr %11) #10
  ret void
}