; Function Attrs: nounwind uwtable
define internal fastcc void @binary_upgrade_set_type_oids_by_type_oid(ptr noundef %0, ptr noundef %1, i32 noundef %2, i1 noundef zeroext %3, i1 noundef zeroext %4) unnamed_addr #5 {
  %6 = tail call ptr @createPQExpBuffer() #14
  tail call void @appendPQExpBufferStr(ptr noundef %1, ptr noundef nonnull @.str.856) #14
  tail call void (ptr, ptr, ...) @appendPQExpBuffer(ptr noundef %1, ptr noundef nonnull @.str.857, i32 noundef %2) #14
  %7 = tail call ptr @findTypeByOid(i32 noundef %2) #14
  %.not = icmp eq ptr %7, null
  br i1 %.not, label %11, label %8

8:                                                ; preds = %5
  %9 = getelementptr inbounds nuw i8, ptr %7, i64 120
  %10 = load i32, ptr %9, align 8
  br label %11

11:                                               ; preds = %5, %8
  %.0 = phi i32 [ %10, %8 ], [ 0, %5 ]
  %.not38 = icmp eq i32 %.0, 0
  %brmerge.not = and i1 %3, %.not38
  br i1 %brmerge.not, label %.preheader43, label %20

.preheader43:                                     ; preds = %11, %.preheader43
  %12 = load i32, ptr @get_next_possible_free_pg_type_oid.next_possible_free_oid, align 4
  %13 = add i32 %12, 1
  store i32 %13, ptr @get_next_possible_free_pg_type_oid.next_possible_free_oid, align 4
  tail call void (ptr, ptr, ...) @printfPQExpBuffer(ptr noundef %6, ptr noundef nonnull @.str.865, i32 noundef %13) #14
  %14 = load ptr, ptr %6, align 8
  %15 = tail call ptr @ExecuteSqlQueryForSingleRow(ptr noundef %0, ptr noundef %14) #14
  %16 = tail call ptr @PQgetvalue(ptr noundef %15, i32 noundef 0, i32 noundef 0) #14
  %17 = load i8, ptr %16, align 1
  %18 = icmp eq i8 %17, 116
  tail call void @PQclear(ptr noundef %15) #14
  br i1 %18, label %.preheader43, label %get_next_possible_free_pg_type_oid.exit, !llvm.loop !161

get_next_possible_free_pg_type_oid.exit:          ; preds = %.preheader43
  %19 = load i32, ptr @get_next_possible_free_pg_type_oid.next_possible_free_oid, align 4
  br label %20

20:                                               ; preds = %11, %get_next_possible_free_pg_type_oid.exit
  %.1 = phi i32 [ %.0, %11 ], [ %19, %get_next_possible_free_pg_type_oid.exit ]
  %.not39 = icmp eq i32 %.1, 0
  br i1 %.not39, label %22, label %21

21:                                               ; preds = %20
  tail call void @appendPQExpBufferStr(ptr noundef %1, ptr noundef nonnull @.str.858) #14
  tail call void (ptr, ptr, ...) @appendPQExpBuffer(ptr noundef %1, ptr noundef nonnull @.str.859, i32 noundef %.1) #14
  br label %22

22:                                               ; preds = %21, %20
  br i1 %4, label %23, label %56

23:                                               ; preds = %22
  %24 = getelementptr inbounds nuw i8, ptr %0, i64 32
  %25 = load i32, ptr %24, align 8
  %26 = icmp sgt i32 %25, 139999
  br i1 %26, label %27, label %.preheader

27:                                               ; preds = %23
  tail call void (ptr, ptr, ...) @printfPQExpBuffer(ptr noundef %6, ptr noundef nonnull @.str.860, i32 noundef %2) #14
  %28 = load ptr, ptr %6, align 8
  %29 = tail call ptr @ExecuteSqlQueryForSingleRow(ptr noundef nonnull %0, ptr noundef %28) #14
  %30 = tail call i32 @PQfnumber(ptr noundef %29, ptr noundef nonnull @.str.106) #14
  %31 = tail call ptr @PQgetvalue(ptr noundef %29, i32 noundef 0, i32 noundef %30) #14
  %32 = tail call i64 @strtoul(ptr noundef captures(none) %31, ptr noundef null, i32 noundef 10) #14
  %33 = trunc i64 %32 to i32
  %34 = tail call i32 @PQfnumber(ptr noundef %29, ptr noundef nonnull @.str.211) #14
  %35 = tail call ptr @PQgetvalue(ptr noundef %29, i32 noundef 0, i32 noundef %34) #14
  %36 = tail call i64 @strtoul(ptr noundef captures(none) %35, ptr noundef null, i32 noundef 10) #14
  %37 = trunc i64 %36 to i32
  tail call void @PQclear(ptr noundef %29) #14
  br label %55

.preheader:                                       ; preds = %23, %.preheader
  %38 = load i32, ptr @get_next_possible_free_pg_type_oid.next_possible_free_oid, align 4
  %39 = add i32 %38, 1
  store i32 %39, ptr @get_next_possible_free_pg_type_oid.next_possible_free_oid, align 4
  tail call void (ptr, ptr, ...) @printfPQExpBuffer(ptr noundef %6, ptr noundef nonnull @.str.865, i32 noundef %39) #14
  %40 = load ptr, ptr %6, align 8
  %41 = tail call ptr @ExecuteSqlQueryForSingleRow(ptr noundef %0, ptr noundef %40) #14
  %42 = tail call ptr @PQgetvalue(ptr noundef %41, i32 noundef 0, i32 noundef 0) #14
  %43 = load i8, ptr %42, align 1
  %44 = icmp eq i8 %43, 116
  tail call void @PQclear(ptr noundef %41) #14
  br i1 %44, label %.preheader, label %get_next_possible_free_pg_type_oid.exit41, !llvm.loop !161

get_next_possible_free_pg_type_oid.exit41:        ; preds = %.preheader
  %45 = load i32, ptr @get_next_possible_free_pg_type_oid.next_possible_free_oid, align 4
  br label %46

46:                                               ; preds = %46, %get_next_possible_free_pg_type_oid.exit41
  %47 = load i32, ptr @get_next_possible_free_pg_type_oid.next_possible_free_oid, align 4
  %48 = add i32 %47, 1
  store i32 %48, ptr @get_next_possible_free_pg_type_oid.next_possible_free_oid, align 4
  tail call void (ptr, ptr, ...) @printfPQExpBuffer(ptr noundef nonnull %6, ptr noundef nonnull @.str.865, i32 noundef %48) #14
  %49 = load ptr, ptr %6, align 8
  %50 = tail call ptr @ExecuteSqlQueryForSingleRow(ptr noundef %0, ptr noundef %49) #14
  %51 = tail call ptr @PQgetvalue(ptr noundef %50, i32 noundef 0, i32 noundef 0) #14
  %52 = load i8, ptr %51, align 1
  %53 = icmp eq i8 %52, 116
  tail call void @PQclear(ptr noundef %50) #14
  br i1 %53, label %46, label %get_next_possible_free_pg_type_oid.exit42, !llvm.loop !161

get_next_possible_free_pg_type_oid.exit42:        ; preds = %46
  %54 = load i32, ptr @get_next_possible_free_pg_type_oid.next_possible_free_oid, align 4
  br label %55

55:                                               ; preds = %get_next_possible_free_pg_type_oid.exit42, %27
  %.036 = phi i32 [ %33, %27 ], [ %45, %get_next_possible_free_pg_type_oid.exit42 ]
  %.035 = phi i32 [ %37, %27 ], [ %54, %get_next_possible_free_pg_type_oid.exit42 ]
  tail call void @appendPQExpBufferStr(ptr noundef %1, ptr noundef nonnull @.str.861) #14
  tail call void (ptr, ptr, ...) @appendPQExpBuffer(ptr noundef %1, ptr noundef nonnull @.str.862, i32 noundef %.036) #14
  tail call void @appendPQExpBufferStr(ptr noundef %1, ptr noundef nonnull @.str.863) #14
  tail call void (ptr, ptr, ...) @appendPQExpBuffer(ptr noundef %1, ptr noundef nonnull @.str.864, i32 noundef %.035) #14
  br label %56

56:                                               ; preds = %55, %22
  tail call void @destroyPQExpBuffer(ptr noundef %6) #14
  ret void
}